target datalayout = "e-m:e-p270:32:32-p271:32:32-p272:64:64-i64:64-i128:128-f80:128-n8:16:32:64-S128"
target triple = "x86_64-pc-linux-gnu"

%"struct.faiss::SimulatedAnnealingOptimizer" = type { ptr, %"struct.faiss::SimulatedAnnealingParameters.base", ptr, i32, ptr, ptr, double }
%"struct.faiss::SimulatedAnnealingParameters.base" = type <{ double, double, i32, i32, i32, i32, i8, i8 }>

@_ZTVN5faiss27SimulatedAnnealingOptimizerE = unnamed_addr constant { [4 x ptr] } { [4 x ptr] [ptr null, ptr @_ZTIN5faiss27SimulatedAnnealingOptimizerE, ptr @_ZN5faiss27SimulatedAnnealingOptimizerD1Ev, ptr @_ZN5faiss27SimulatedAnnealingOptimizerD0Ev] }, align 8

; Function Attrs: mustprogress nounwind uwtable
define void @_ZN5faiss27SimulatedAnnealingOptimizerD2Ev(ptr noundef nonnull align 8 dereferenceable(88) %0) unnamed_addr #1 align 2 {
  %2 = alloca ptr, align 8
  store ptr %0, ptr %2, align 8, !tbaa !35
  %3 = load ptr, ptr %2, align 8
  store ptr getelementptr inbounds inrange(-16, 16) ({ [4 x ptr] }, ptr @_ZTVN5faiss27SimulatedAnnealingOptimizerE, i32 0, i32 0, i32 2), ptr %3, align 8, !tbaa !13
  %4 = getelementptr inbounds nuw %"struct.faiss::SimulatedAnnealingOptimizer", ptr %3, i32 0, i32 5
  %5 = load ptr, ptr %4, align 8, !tbaa !74
  %6 = icmp eq ptr %5, null
  br i1 %6, label %8, label %7

7:                                                ; preds = %1
  call void @_ZdlPvm(ptr noundef %5, i64 noundef 5000) #20
  br label %8

8:                                                ; preds = %7, %1
  ret void
}